
ROSA.elf:     file format elf32-avr32

Sections:
Idx Name          Size      VMA       LMA       File off  Algn
  0 .reset        00000008  80000000  80000000  00000400  2**2
                  CONTENTS, ALLOC, LOAD, READONLY, CODE
  1 .rela.got     00000000  80000008  80000008  00000408  2**2
                  CONTENTS, ALLOC, LOAD, READONLY, DATA
  2 .text         00000454  80000008  80000008  00000408  2**2
                  CONTENTS, ALLOC, LOAD, READONLY, CODE
  3 .exception    00000400  80000600  80000600  00000a00  2**9
                  CONTENTS, ALLOC, LOAD, READONLY, CODE
  4 .dalign       00000004  00000004  00000004  00000000  2**0
                  ALLOC
  5 .data         00000008  00000008  80000a00  00001008  2**0
                  CONTENTS, ALLOC, LOAD, DATA
  6 .bss          00000020  00000010  00000010  00000000  2**2
                  ALLOC
  7 .heap         0000dfd0  00000030  00000030  00000000  2**0
                  ALLOC
  8 .comment      00000030  00000000  00000000  00001010  2**0
                  CONTENTS, READONLY
  9 .debug_aranges 00000180  00000000  00000000  00001040  2**3
                  CONTENTS, READONLY, DEBUGGING
 10 .debug_pubnames 0000039d  00000000  00000000  000011c0  2**0
                  CONTENTS, READONLY, DEBUGGING
 11 .debug_info   0000180e  00000000  00000000  0000155d  2**0
                  CONTENTS, READONLY, DEBUGGING
 12 .debug_abbrev 000005da  00000000  00000000  00002d6b  2**0
                  CONTENTS, READONLY, DEBUGGING
 13 .debug_line   00001fef  00000000  00000000  00003345  2**0
                  CONTENTS, READONLY, DEBUGGING
 14 .debug_frame  00000384  00000000  00000000  00005334  2**2
                  CONTENTS, READONLY, DEBUGGING
 15 .debug_str    00000791  00000000  00000000  000056b8  2**0
                  CONTENTS, READONLY, DEBUGGING
 16 .debug_loc    000004df  00000000  00000000  00005e49  2**0
                  CONTENTS, READONLY, DEBUGGING
 17 .debug_macinfo 0045ad6e  00000000  00000000  00006328  2**0
                  CONTENTS, READONLY, DEBUGGING
 18 .appstack     00001000  0000e000  0000e000  00000000  2**0
                  ALLOC
 19 .stack        00001000  0000f000  0000f000  00000000  2**0
                  ALLOC
 20 .debug_ranges 00000138  00000000  00000000  00461096  2**0
                  CONTENTS, READONLY, DEBUGGING

Disassembly of section .reset:

80000000 <_start>:
80000000:	48 1f       	lddpc	pc,80000004 <_start+0x4>
80000002:	00 00       	add	r0,r0
80000004:	80 00       	ld.sh	r0,r0[0x0]
80000006:	03 dc       	ld.ub	r12,r1[0x5]

Disassembly of section .text:

80000008 <main>:
80000008:	eb cd 40 80 	pushm	r7,lr
8000000c:	1a 97       	mov	r7,sp
8000000e:	c0 08       	rjmp	8000000e <main+0x6>

80000010 <ROSA_yieldFromISR>:
80000010:	eb cd 40 80 	pushm	r7,lr
80000014:	1a 97       	mov	r7,sp
80000016:	f0 1f 00 05 	mcall	80000028 <ROSA_yieldFromISR+0x18>
8000001a:	f0 1f 00 05 	mcall	8000002c <ROSA_yieldFromISR+0x1c>
8000001e:	f0 1f 00 05 	mcall	80000030 <ROSA_yieldFromISR+0x20>
80000022:	e3 cd 80 80 	ldm	sp++,r7,pc
80000026:	00 00       	add	r0,r0
80000028:	80 00       	ld.sh	r0,r0[0x0]
8000002a:	07 7e       	ld.ub	lr,--r3
8000002c:	80 00       	ld.sh	r0,r0[0x0]
8000002e:	00 34       	cp.w	r4,r0
80000030:	80 00       	ld.sh	r0,r0[0x0]
80000032:	07 b8       	ld.ub	r8,r3[0x3]

80000034 <scheduler>:
80000034:	eb cd 40 80 	pushm	r7,lr
80000038:	1a 97       	mov	r7,sp
8000003a:	f0 1f 00 07 	mcall	80000054 <scheduler+0x20>
8000003e:	f0 1f 00 07 	mcall	80000058 <scheduler+0x24>
80000042:	f0 1f 00 07 	mcall	8000005c <scheduler+0x28>
80000046:	f0 1f 00 07 	mcall	80000060 <scheduler+0x2c>
8000004a:	f0 1f 00 07 	mcall	80000064 <scheduler+0x30>
8000004e:	e3 cd 80 80 	ldm	sp++,r7,pc
80000052:	00 00       	add	r0,r0
80000054:	80 00       	ld.sh	r0,r0[0x0]
80000056:	07 66       	ld.uh	r6,--r3
80000058:	80 00       	ld.sh	r0,r0[0x0]
8000005a:	00 68       	and	r8,r0
8000005c:	80 00       	ld.sh	r0,r0[0x0]
8000005e:	00 74       	tst	r4,r0
80000060:	80 00       	ld.sh	r0,r0[0x0]
80000062:	00 f8       	st.b	--r0,r8
80000064:	80 00       	ld.sh	r0,r0[0x0]
80000066:	07 6a       	ld.uh	r10,--r3

80000068 <Check_Blocked_Queue>:
80000068:	eb cd 40 80 	pushm	r7,lr
8000006c:	1a 97       	mov	r7,sp
8000006e:	e3 cd 80 80 	ldm	sp++,r7,pc
80000072:	d7 03       	nop

80000074 <Check_Waiting_Queue>:
80000074:	eb cd 40 80 	pushm	r7,lr
80000078:	1a 97       	mov	r7,sp
8000007a:	20 1d       	sub	sp,4
8000007c:	49 c8       	lddpc	r8,800000ec <Check_Waiting_Queue+0x78>
8000007e:	70 08       	ld.w	r8,r8[0x0]
80000080:	ef 48 ff fc 	st.w	r7[-4],r8
80000084:	49 a8       	lddpc	r8,800000ec <Check_Waiting_Queue+0x78>
80000086:	70 08       	ld.w	r8,r8[0x0]
80000088:	58 08       	cp.w	r8,0
8000008a:	c2 c0       	breq	800000e2 <Check_Waiting_Queue+0x6e>
8000008c:	ee f8 ff fc 	ld.w	r8,r7[-4]
80000090:	f0 ea 00 0c 	ld.d	r10,r8[12]
80000094:	49 78       	lddpc	r8,800000f0 <Check_Waiting_Queue+0x7c>
80000096:	f0 e8 00 00 	ld.d	r8,r8[0]
8000009a:	10 3a       	cp.w	r10,r8
8000009c:	f2 0b 13 00 	cpc	r11,r9
800000a0:	e0 88 00 10 	brls	800000c0 <Check_Waiting_Queue+0x4c>
800000a4:	c2 08       	rjmp	800000e4 <Check_Waiting_Queue+0x70>
800000a6:	ee fc ff fc 	ld.w	r12,r7[-4]
800000aa:	f0 1f 00 13 	mcall	800000f4 <Check_Waiting_Queue+0x80>
800000ae:	ee f8 ff fc 	ld.w	r8,r7[-4]
800000b2:	70 09       	ld.w	r9,r8[0x0]
800000b4:	48 e8       	lddpc	r8,800000ec <Check_Waiting_Queue+0x78>
800000b6:	91 09       	st.w	r8[0x0],r9
800000b8:	48 d8       	lddpc	r8,800000ec <Check_Waiting_Queue+0x78>
800000ba:	70 08       	ld.w	r8,r8[0x0]
800000bc:	ef 48 ff fc 	st.w	r7[-4],r8
800000c0:	ee f8 ff fc 	ld.w	r8,r7[-4]
800000c4:	58 08       	cp.w	r8,0
800000c6:	c0 f0       	breq	800000e4 <Check_Waiting_Queue+0x70>
800000c8:	ee f8 ff fc 	ld.w	r8,r7[-4]
800000cc:	f0 ea 00 0c 	ld.d	r10,r8[12]
800000d0:	48 88       	lddpc	r8,800000f0 <Check_Waiting_Queue+0x7c>
800000d2:	f0 e8 00 00 	ld.d	r8,r8[0]
800000d6:	10 3a       	cp.w	r10,r8
800000d8:	f2 0b 13 00 	cpc	r11,r9
800000dc:	fe 98 ff e5 	brls	800000a6 <Check_Waiting_Queue+0x32>
800000e0:	c0 28       	rjmp	800000e4 <Check_Waiting_Queue+0x70>
800000e2:	d7 03       	nop
800000e4:	2f fd       	sub	sp,-4
800000e6:	e3 cd 80 80 	ldm	sp++,r7,pc
800000ea:	00 00       	add	r0,r0
800000ec:	00 00       	add	r0,r0
800000ee:	00 1c       	sub	r12,r0
800000f0:	00 00       	add	r0,r0
800000f2:	00 24       	rsub	r4,r0
800000f4:	80 00       	ld.sh	r0,r0[0x0]
800000f6:	01 2c       	ld.uh	r12,r0++

800000f8 <Chose_A_Task_Frome_Ready_Queue>:
800000f8:	eb cd 40 80 	pushm	r7,lr
800000fc:	1a 97       	mov	r7,sp
800000fe:	48 a8       	lddpc	r8,80000124 <Chose_A_Task_Frome_Ready_Queue+0x2c>
80000100:	70 08       	ld.w	r8,r8[0x0]
80000102:	58 08       	cp.w	r8,0
80000104:	c0 e0       	breq	80000120 <Chose_A_Task_Frome_Ready_Queue+0x28>
80000106:	48 88       	lddpc	r8,80000124 <Chose_A_Task_Frome_Ready_Queue+0x2c>
80000108:	70 09       	ld.w	r9,r8[0x0]
8000010a:	48 88       	lddpc	r8,80000128 <Chose_A_Task_Frome_Ready_Queue+0x30>
8000010c:	91 09       	st.w	r8[0x0],r9
8000010e:	48 68       	lddpc	r8,80000124 <Chose_A_Task_Frome_Ready_Queue+0x2c>
80000110:	70 08       	ld.w	r8,r8[0x0]
80000112:	70 09       	ld.w	r9,r8[0x0]
80000114:	48 48       	lddpc	r8,80000124 <Chose_A_Task_Frome_Ready_Queue+0x2c>
80000116:	91 09       	st.w	r8[0x0],r9
80000118:	48 48       	lddpc	r8,80000128 <Chose_A_Task_Frome_Ready_Queue+0x30>
8000011a:	70 08       	ld.w	r8,r8[0x0]
8000011c:	30 09       	mov	r9,0
8000011e:	91 09       	st.w	r8[0x0],r9
80000120:	e3 cd 80 80 	ldm	sp++,r7,pc
80000124:	00 00       	add	r0,r0
80000126:	00 14       	sub	r4,r0
80000128:	00 00       	add	r0,r0
8000012a:	00 10       	sub	r0,r0

8000012c <Insert_Ready>:
8000012c:	eb cd 40 80 	pushm	r7,lr
80000130:	1a 97       	mov	r7,sp
80000132:	20 3d       	sub	sp,12
80000134:	ef 4c ff f4 	st.w	r7[-12],r12
80000138:	ee f8 ff f4 	ld.w	r8,r7[-12]
8000013c:	70 18       	ld.w	r8,r8[0x4]
8000013e:	ef 48 ff f8 	st.w	r7[-8],r8
80000142:	4a e8       	lddpc	r8,800001f8 <Insert_Ready+0xcc>
80000144:	70 08       	ld.w	r8,r8[0x0]
80000146:	ef 48 ff fc 	st.w	r7[-4],r8
8000014a:	ee f8 ff fc 	ld.w	r8,r7[-4]
8000014e:	58 08       	cp.w	r8,0
80000150:	c0 61       	brne	8000015c <Insert_Ready+0x30>
80000152:	4a a8       	lddpc	r8,800001f8 <Insert_Ready+0xcc>
80000154:	ee f9 ff f4 	ld.w	r9,r7[-12]
80000158:	91 09       	st.w	r8[0x0],r9
8000015a:	c4 c8       	rjmp	800001f2 <Insert_Ready+0xc6>
8000015c:	ee f8 ff f4 	ld.w	r8,r7[-12]
80000160:	70 18       	ld.w	r8,r8[0x4]
80000162:	58 08       	cp.w	r8,0
80000164:	c1 61       	brne	80000190 <Insert_Ready+0x64>
80000166:	c0 68       	rjmp	80000172 <Insert_Ready+0x46>
80000168:	ee f8 ff fc 	ld.w	r8,r7[-4]
8000016c:	70 08       	ld.w	r8,r8[0x0]
8000016e:	ef 48 ff fc 	st.w	r7[-4],r8
80000172:	ee f8 ff fc 	ld.w	r8,r7[-4]
80000176:	70 08       	ld.w	r8,r8[0x0]
80000178:	58 08       	cp.w	r8,0
8000017a:	cf 71       	brne	80000168 <Insert_Ready+0x3c>
8000017c:	ee f8 ff fc 	ld.w	r8,r7[-4]
80000180:	ee f9 ff f4 	ld.w	r9,r7[-12]
80000184:	91 09       	st.w	r8[0x0],r9
80000186:	ee f8 ff f4 	ld.w	r8,r7[-12]
8000018a:	30 09       	mov	r9,0
8000018c:	91 09       	st.w	r8[0x0],r9
8000018e:	c3 28       	rjmp	800001f2 <Insert_Ready+0xc6>
80000190:	ee f8 ff fc 	ld.w	r8,r7[-4]
80000194:	70 19       	ld.w	r9,r8[0x4]
80000196:	ee f8 ff f8 	ld.w	r8,r7[-8]
8000019a:	10 39       	cp.w	r9,r8
8000019c:	c2 54       	brge	800001e6 <Insert_Ready+0xba>
8000019e:	ee f8 ff f4 	ld.w	r8,r7[-12]
800001a2:	ee f9 ff fc 	ld.w	r9,r7[-4]
800001a6:	91 09       	st.w	r8[0x0],r9
800001a8:	49 48       	lddpc	r8,800001f8 <Insert_Ready+0xcc>
800001aa:	ee f9 ff f4 	ld.w	r9,r7[-12]
800001ae:	91 09       	st.w	r8[0x0],r9
800001b0:	c2 18       	rjmp	800001f2 <Insert_Ready+0xc6>
800001b2:	ee f8 ff fc 	ld.w	r8,r7[-4]
800001b6:	70 08       	ld.w	r8,r8[0x0]
800001b8:	70 19       	ld.w	r9,r8[0x4]
800001ba:	ee f8 ff f8 	ld.w	r8,r7[-8]
800001be:	10 39       	cp.w	r9,r8
800001c0:	c0 d4       	brge	800001da <Insert_Ready+0xae>
800001c2:	ee f8 ff fc 	ld.w	r8,r7[-4]
800001c6:	70 09       	ld.w	r9,r8[0x0]
800001c8:	ee f8 ff f4 	ld.w	r8,r7[-12]
800001cc:	91 09       	st.w	r8[0x0],r9
800001ce:	ee f8 ff fc 	ld.w	r8,r7[-4]
800001d2:	ee f9 ff f4 	ld.w	r9,r7[-12]
800001d6:	91 09       	st.w	r8[0x0],r9
800001d8:	c0 d8       	rjmp	800001f2 <Insert_Ready+0xc6>
800001da:	ee f8 ff fc 	ld.w	r8,r7[-4]
800001de:	70 08       	ld.w	r8,r8[0x0]
800001e0:	ef 48 ff fc 	st.w	r7[-4],r8
800001e4:	c0 28       	rjmp	800001e8 <Insert_Ready+0xbc>
800001e6:	d7 03       	nop
800001e8:	ee f8 ff fc 	ld.w	r8,r7[-4]
800001ec:	70 08       	ld.w	r8,r8[0x0]
800001ee:	58 08       	cp.w	r8,0
800001f0:	ce 11       	brne	800001b2 <Insert_Ready+0x86>
800001f2:	2f dd       	sub	sp,-12
800001f4:	e3 cd 80 80 	ldm	sp++,r7,pc
800001f8:	00 00       	add	r0,r0
800001fa:	00 14       	sub	r4,r0

800001fc <C.3.10019>:
800001fc:	00 00 00 02 00 00 00 08 00 00 00 20 00 00 00 80     ........... ....

8000020c <timerISR>:
8000020c:	eb cd 40 80 	pushm	r7,lr
80000210:	1a 97       	mov	r7,sp
80000212:	20 2d       	sub	sp,8
80000214:	fe 78 38 00 	mov	r8,-51200
80000218:	ef 48 ff fc 	st.w	r7[-4],r8
8000021c:	49 68       	lddpc	r8,80000274 <timerISR+0x68>
8000021e:	f0 e8 00 00 	ld.d	r8,r8[0]
80000222:	3f da       	mov	r10,-3
80000224:	3f fb       	mov	r11,-1
80000226:	14 38       	cp.w	r8,r10
80000228:	f6 09 13 00 	cpc	r9,r11
8000022c:	c0 e0       	breq	80000248 <timerISR+0x3c>
8000022e:	49 28       	lddpc	r8,80000274 <timerISR+0x68>
80000230:	f0 ea 00 00 	ld.d	r10,r8[0]
80000234:	30 18       	mov	r8,1
80000236:	30 09       	mov	r9,0
80000238:	f4 08 00 08 	add	r8,r10,r8
8000023c:	f6 09 00 49 	adc	r9,r11,r9
80000240:	48 da       	lddpc	r10,80000274 <timerISR+0x68>
80000242:	f4 e9 00 00 	st.d	r10[0],r8
80000246:	c0 68       	rjmp	80000252 <timerISR+0x46>
80000248:	48 ba       	lddpc	r10,80000274 <timerISR+0x68>
8000024a:	30 18       	mov	r8,1
8000024c:	30 09       	mov	r9,0
8000024e:	f4 e9 00 00 	st.d	r10[0],r8
80000252:	ee f8 ff fc 	ld.w	r8,r7[-4]
80000256:	70 88       	ld.w	r8,r8[0x20]
80000258:	ef 48 ff f8 	st.w	r7[-8],r8
8000025c:	ee f8 ff f8 	ld.w	r8,r7[-8]
80000260:	e2 18 00 10 	andl	r8,0x10,COH
80000264:	c0 30       	breq	8000026a <timerISR+0x5e>
80000266:	f0 1f 00 05 	mcall	80000278 <timerISR+0x6c>
8000026a:	2f ed       	sub	sp,-8
8000026c:	e3 cd 40 80 	ldm	sp++,r7,lr
80000270:	d6 03       	rete
80000272:	00 00       	add	r0,r0
80000274:	00 00       	add	r0,r0
80000276:	00 24       	rsub	r4,r0
80000278:	80 00       	ld.sh	r0,r0[0x0]
8000027a:	00 10       	sub	r0,r0

8000027c <timerPeriodSet>:
8000027c:	eb cd 40 80 	pushm	r7,lr
80000280:	1a 97       	mov	r7,sp
80000282:	20 7d       	sub	sp,28
80000284:	ef 4c ff e4 	st.w	r7[-28],r12
80000288:	4a 48       	lddpc	r8,80000318 <timerPeriodSet+0x9c>
8000028a:	ee ca 00 18 	sub	r10,r7,24
8000028e:	10 9b       	mov	r11,r8
80000290:	f6 e8 00 00 	ld.d	r8,r11[0]
80000294:	f4 e9 00 00 	st.d	r10[0],r8
80000298:	f6 e8 00 08 	ld.d	r8,r11[8]
8000029c:	f4 e9 00 08 	st.d	r10[8],r8
800002a0:	30 48       	mov	r8,4
800002a2:	ef 48 ff fc 	st.w	r7[-4],r8
800002a6:	ee f8 ff fc 	ld.w	r8,r7[-4]
800002aa:	20 18       	sub	r8,1
800002ac:	a3 68       	lsl	r8,0x2
800002ae:	ee 08 00 08 	add	r8,r7,r8
800002b2:	f0 f9 ff e8 	ld.w	r9,r8[-24]
800002b6:	e0 68 1b 00 	mov	r8,6912
800002ba:	ea 18 00 b7 	orh	r8,0xb7
800002be:	f0 09 0c 08 	divs	r8,r8,r9
800002c2:	10 99       	mov	r9,r8
800002c4:	ee f8 ff e4 	ld.w	r8,r7[-28]
800002c8:	b1 39       	mul	r9,r8
800002ca:	e0 68 4d d3 	mov	r8,19923
800002ce:	ea 18 10 62 	orh	r8,0x1062
800002d2:	f2 08 06 48 	mulu.d	r8,r9,r8
800002d6:	f2 08 16 06 	lsr	r8,r9,0x6
800002da:	ef 48 ff f8 	st.w	r7[-8],r8
800002de:	ee fc ff fc 	ld.w	r12,r7[-4]
800002e2:	f0 1f 00 0f 	mcall	8000031c <timerPeriodSet+0xa0>
800002e6:	ee fc ff f8 	ld.w	r12,r7[-8]
800002ea:	f0 1f 00 0e 	mcall	80000320 <timerPeriodSet+0xa4>
800002ee:	ee f9 ff f8 	ld.w	r9,r7[-8]
800002f2:	ee f8 ff fc 	ld.w	r8,r7[-4]
800002f6:	f2 08 02 4a 	mul	r10,r9,r8
800002fa:	e0 68 9f 81 	mov	r8,40833
800002fe:	ea 18 16 5e 	orh	r8,0x165e
80000302:	f4 08 04 48 	muls.d	r8,r10,r8
80000306:	b5 49       	asr	r9,0x14
80000308:	f4 08 14 1f 	asr	r8,r10,0x1f
8000030c:	f2 08 01 08 	sub	r8,r9,r8
80000310:	10 9c       	mov	r12,r8
80000312:	2f 9d       	sub	sp,-28
80000314:	e3 cd 80 80 	ldm	sp++,r7,pc
80000318:	80 00       	ld.sh	r0,r0[0x0]
8000031a:	01 fc       	ld.ub	r12,r0[0x7]
8000031c:	80 00       	ld.sh	r0,r0[0x0]
8000031e:	03 98       	ld.ub	r8,r1[0x1]
80000320:	80 00       	ld.sh	r0,r0[0x0]
80000322:	03 82       	ld.ub	r2,r1[0x0]

80000324 <timerInit>:
80000324:	d5 01       	pushm	r11,lr
80000326:	d2 01       	pushm	r12
80000328:	f0 1f 00 28 	mcall	800003c8 <timerClearInterrupt+0x10>
8000032c:	f0 1f 00 28 	mcall	800003cc <timerClearInterrupt+0x14>
80000330:	e0 6c 38 00 	mov	r12,14336
80000334:	ea 1c ff ff 	orh	r12,0xffff
80000338:	e0 6b c0 00 	mov	r11,49152
8000033c:	ea 1b 00 00 	orh	r11,0x0
80000340:	99 1b       	st.w	r12[0x4],r11
80000342:	30 1b       	mov	r11,1
80000344:	a5 6b       	lsl	r11,0x4
80000346:	99 9b       	st.w	r12[0x24],r11
80000348:	d2 02       	popm	r12
8000034a:	f0 1f 00 22 	mcall	800003d0 <timerClearInterrupt+0x18>
8000034e:	d5 02       	popm	r11,lr
80000350:	1c 9f       	mov	pc,lr

80000352 <timerReset>:
80000352:	d3 01       	pushm	r11-r12
80000354:	e0 6c 38 00 	mov	r12,14336
80000358:	ea 1c ff ff 	orh	r12,0xffff
8000035c:	30 5b       	mov	r11,5
8000035e:	99 0b       	st.w	r12[0x0],r11
80000360:	e0 6b 00 08 	mov	r11,8
80000364:	ea 1b 00 00 	orh	r11,0x0
80000368:	76 0b       	ld.w	r11,r11[0x0]
8000036a:	99 7b       	st.w	r12[0x1c],r11
8000036c:	d3 02       	popm	r11-r12
8000036e:	1c 9f       	mov	pc,lr

80000370 <timerStop>:
80000370:	d3 01       	pushm	r11-r12
80000372:	e0 6c 38 00 	mov	r12,14336
80000376:	ea 1c ff ff 	orh	r12,0xffff
8000037a:	30 2b       	mov	r11,2
8000037c:	99 0b       	st.w	r12[0x0],r11
8000037e:	d3 02       	popm	r11-r12
80000380:	1c 9f       	mov	pc,lr

80000382 <timerRCSet>:
80000382:	d3 01       	pushm	r11-r12
80000384:	49 4b       	lddpc	r11,800003d4 <timerClearInterrupt+0x1c>
80000386:	97 0c       	st.w	r11[0x0],r12
80000388:	e0 6c 38 00 	mov	r12,14336
8000038c:	ea 1c ff ff 	orh	r12,0xffff
80000390:	76 0b       	ld.w	r11,r11[0x0]
80000392:	99 7b       	st.w	r12[0x1c],r11
80000394:	d3 02       	popm	r11-r12
80000396:	1c 9f       	mov	pc,lr

80000398 <timerPrescaleSet>:
80000398:	d3 81       	pushm	r10-r12
8000039a:	49 0b       	lddpc	r11,800003d8 <timerClearInterrupt+0x20>
8000039c:	97 0c       	st.w	r11[0x0],r12
8000039e:	e0 6c 38 00 	mov	r12,14336
800003a2:	ea 1c ff ff 	orh	r12,0xffff
800003a6:	78 1a       	ld.w	r10,r12[0x4]
800003a8:	3f 8b       	mov	r11,-8
800003aa:	16 6a       	and	r10,r11
800003ac:	48 bb       	lddpc	r11,800003d8 <timerClearInterrupt+0x20>
800003ae:	76 0b       	ld.w	r11,r11[0x0]
800003b0:	14 4b       	or	r11,r10
800003b2:	99 1b       	st.w	r12[0x4],r11
800003b4:	d3 82       	popm	r10-r12
800003b6:	1c 9f       	mov	pc,lr

800003b8 <timerClearInterrupt>:
800003b8:	d2 01       	pushm	r12
800003ba:	e0 6c 38 00 	mov	r12,14336
800003be:	ea 1c ff ff 	orh	r12,0xffff
800003c2:	78 8c       	ld.w	r12,r12[0x20]
800003c4:	d2 02       	popm	r12
800003c6:	1c 9f       	mov	pc,lr
800003c8:	80 00       	ld.sh	r0,r0[0x0]
800003ca:	07 66       	ld.uh	r6,--r3
800003cc:	80 00       	ld.sh	r0,r0[0x0]
800003ce:	03 b8       	ld.ub	r8,r1[0x3]
800003d0:	80 00       	ld.sh	r0,r0[0x0]
800003d2:	02 7c       	tst	r12,r1
800003d4:	00 00       	add	r0,r0
800003d6:	00 08       	add	r8,r0
800003d8:	00 00       	add	r0,r0
800003da:	00 0c       	add	r12,r0

800003dc <_stext>:
800003dc:	49 7d       	lddpc	sp,80000438 <udata_end+0x4>
800003de:	49 80       	lddpc	r0,8000043c <udata_end+0x8>
800003e0:	1a d0       	st.w	--sp,r0
800003e2:	e5 cd 20 00 	ldmts	sp,sp
800003e6:	1b 00       	ld.w	r0,sp++
800003e8:	49 60       	lddpc	r0,80000440 <udata_end+0xc>
800003ea:	e3 b0 00 01 	mtsr	0x4,r0
800003ee:	d5 53       	csrf	0x15
800003f0:	e0 6c 0c 00 	mov	r12,3072
800003f4:	ea 1c ff ff 	orh	r12,0xffff
800003f8:	e0 6b 01 07 	mov	r11,263
800003fc:	99 ab       	st.w	r12[0x28],r11
800003fe:	30 4b       	mov	r11,4
80000400:	99 0b       	st.w	r12[0x0],r11
80000402:	e0 6a 00 80 	mov	r10,128

80000406 <xw8>:
80000406:	79 5b       	ld.w	r11,r12[0x54]
80000408:	14 7b       	tst	r11,r10
8000040a:	cf e0       	breq	80000406 <xw8>
8000040c:	30 5b       	mov	r11,5
8000040e:	99 0b       	st.w	r12[0x0],r11

80000410 <idata_>:
80000410:	48 d0       	lddpc	r0,80000444 <udata_end+0x10>
80000412:	48 e1       	lddpc	r1,80000448 <udata_end+0x14>
80000414:	02 30       	cp.w	r0,r1
80000416:	c0 62       	brcc	80000422 <idata_end>
80000418:	48 d2       	lddpc	r2,8000044c <udata_end+0x18>

8000041a <idata_loop>:
8000041a:	05 04       	ld.w	r4,r2++
8000041c:	00 a4       	st.w	r0++,r4
8000041e:	02 30       	cp.w	r0,r1
80000420:	cf d3       	brcs	8000041a <idata_loop>

80000422 <idata_end>:
80000422:	48 c0       	lddpc	r0,80000450 <udata_end+0x1c>
80000424:	48 c1       	lddpc	r1,80000454 <udata_end+0x20>
80000426:	02 30       	cp.w	r0,r1
80000428:	c0 62       	brcc	80000434 <udata_end>
8000042a:	30 02       	mov	r2,0
8000042c:	30 03       	mov	r3,0

8000042e <udata_loop>:
8000042e:	00 a2       	st.w	r0++,r2
80000430:	02 30       	cp.w	r0,r1
80000432:	cf e3       	brcs	8000042e <udata_loop>

80000434 <udata_end>:
80000434:	48 9f       	lddpc	pc,80000458 <udata_end+0x24>
80000436:	00 00       	add	r0,r0
80000438:	00 01       	add	r1,r0
8000043a:	00 00       	add	r0,r0
8000043c:	00 00       	add	r0,r0
8000043e:	f0 00       	*unknown*
80000440:	80 00       	ld.sh	r0,r0[0x0]
80000442:	06 00       	add	r0,r3
80000444:	00 00       	add	r0,r0
80000446:	00 08       	add	r8,r0
80000448:	00 00       	add	r0,r0
8000044a:	00 10       	sub	r0,r0
8000044c:	80 00       	ld.sh	r0,r0[0x0]
8000044e:	0a 00       	add	r0,r5
80000450:	00 00       	add	r0,r0
80000452:	00 10       	sub	r0,r0
80000454:	00 00       	add	r0,r0
80000456:	00 30       	cp.w	r0,r0
80000458:	80 00       	ld.sh	r0,r0[0x0]
8000045a:	00 08       	add	r8,r0

Disassembly of section .exception:

80000600 <_evba>:
	...

80000628 <_handle_Privilege_Violation>:
80000628:	c7 a8       	rjmp	8000071c <privilegedCalls>
	...

80000700 <_handle_Supervisor_Call>:
80000700:	1c 9f       	mov	pc,lr

80000702 <_int0>:
80000702:	e0 6c 08 00 	mov	r12,2048
80000706:	ea 1c ff ff 	orh	r12,0xffff
8000070a:	f8 fc 01 38 	ld.w	r12,r12[312]
8000070e:	e0 1c 00 01 	andl	r12,0x1
80000712:	58 1c       	cp.w	r12,1
80000714:	c0 31       	brne	8000071a <_int0_exit>
80000716:	4b 9c       	lddpc	r12,800007f8 <contextRestoreFromISR+0x40>
80000718:	18 9f       	mov	pc,r12

8000071a <_int0_exit>:
8000071a:	d6 03       	rete

8000071c <privilegedCalls>:
8000071c:	d3 01       	pushm	r11-r12
8000071e:	7a 3b       	ld.w	r11,sp[0xc]
80000720:	16 9c       	mov	r12,r11
80000722:	2f ec       	sub	r12,-2
80000724:	9b 3c       	st.w	sp[0xc],r12

80000726 <priv_interruptdisable>:
80000726:	4b 6c       	lddpc	r12,800007fc <contextRestoreFromISR+0x44>
80000728:	18 3b       	cp.w	r11,r12
8000072a:	c0 61       	brne	80000736 <priv_interruptenable>
8000072c:	7a 2c       	ld.w	r12,sp[0x8]
8000072e:	b1 ac       	sbr	r12,0x10
80000730:	9b 2c       	st.w	sp[0x8],r12
80000732:	d3 02       	popm	r11-r12
80000734:	d6 03       	rete

80000736 <priv_interruptenable>:
80000736:	4b 3c       	lddpc	r12,80000800 <contextRestoreFromISR+0x48>
80000738:	18 3b       	cp.w	r11,r12
8000073a:	c0 61       	brne	80000746 <privexception>
8000073c:	7a 2c       	ld.w	r12,sp[0x8]
8000073e:	b1 cc       	cbr	r12,0x10
80000740:	9b 2c       	st.w	sp[0x8],r12
80000742:	d3 02       	popm	r11-r12
80000744:	d6 03       	rete

80000746 <privexception>:
80000746:	c0 08       	rjmp	80000746 <privexception>

80000748 <interruptInit>:
80000748:	d7 01       	pushm	r11-r12,lr
8000074a:	fe cb 00 48 	sub	r11,pc,72
8000074e:	4a ec       	lddpc	r12,80000804 <contextRestoreFromISR+0x4c>
80000750:	18 1b       	sub	r11,r12
80000752:	30 0c       	mov	r12,0
80000754:	f7 ec 11 eb 	or	r11,r11,r12<<0x1e
80000758:	e0 6c 08 38 	mov	r12,2104
8000075c:	ea 1c ff ff 	orh	r12,0xffff
80000760:	99 0b       	st.w	r12[0x0],r11
80000762:	d7 02       	popm	r11-r12,lr
80000764:	1c 9f       	mov	pc,lr

80000766 <interruptDisable>:
80000766:	d3 03       	ssrf	0x10
80000768:	1c 9f       	mov	pc,lr

8000076a <interruptEnable>:
8000076a:	d5 03       	csrf	0x10
8000076c:	1c 9f       	mov	pc,lr

8000076e <isInterruptEnabled>:
8000076e:	e1 bc 00 00 	mfsr	r12,0x0
80000772:	b1 8c       	lsr	r12,0x10
80000774:	e0 1c 00 01 	andl	r12,0x1
80000778:	ec 1c 00 01 	eorl	r12,0x1
8000077c:	1c 9f       	mov	pc,lr

8000077e <contextSaveFromISR>:
8000077e:	4a 3c       	lddpc	r12,80000808 <contextRestoreFromISR+0x50>
80000780:	78 0c       	ld.w	r12,r12[0x0]
80000782:	99 60       	st.w	r12[0x18],r0
80000784:	7a 90       	ld.w	r0,sp[0x24]
80000786:	99 c0       	st.w	r12[0x30],r0
80000788:	7a 60       	ld.w	r0,sp[0x18]
8000078a:	99 80       	st.w	r12[0x20],r0
8000078c:	7a d8       	ld.w	r8,sp[0x34]
8000078e:	7a c9       	ld.w	r9,sp[0x30]
80000790:	7a ba       	ld.w	r10,sp[0x2c]
80000792:	7a ab       	ld.w	r11,sp[0x28]
80000794:	33 40       	mov	r0,52
80000796:	18 00       	add	r0,r12
80000798:	ed c0 0f ff 	stmts	r0,r0-r11
8000079c:	7a 50       	ld.w	r0,sp[0x14]
8000079e:	f9 40 00 44 	st.w	r12[68],r0
800007a2:	7a 70       	ld.w	r0,sp[0x1c]
800007a4:	99 90       	st.w	r12[0x24],r0
800007a6:	7a 80       	ld.w	r0,sp[0x20]
800007a8:	99 a0       	st.w	r12[0x28],r0
800007aa:	1a 90       	mov	r0,sp
800007ac:	1a d0       	st.w	--sp,r0
800007ae:	ed cd 20 00 	stmts	sp,sp
800007b2:	1b 00       	ld.w	r0,sp++
800007b4:	99 50       	st.w	r12[0x14],r0
800007b6:	1c 9f       	mov	pc,lr

800007b8 <contextRestoreFromISR>:
800007b8:	49 4c       	lddpc	r12,80000808 <contextRestoreFromISR+0x50>
800007ba:	78 0c       	ld.w	r12,r12[0x0]
800007bc:	78 50       	ld.w	r0,r12[0x14]
800007be:	1a d0       	st.w	--sp,r0
800007c0:	e5 cd 20 00 	ldmts	sp,sp
800007c4:	1b 00       	ld.w	r0,sp++
800007c6:	78 a0       	ld.w	r0,r12[0x28]
800007c8:	9b 80       	st.w	sp[0x20],r0
800007ca:	78 90       	ld.w	r0,r12[0x24]
800007cc:	9b 70       	st.w	sp[0x1c],r0
800007ce:	33 40       	mov	r0,52
800007d0:	18 00       	add	r0,r12
800007d2:	e5 c0 0f ff 	ldmts	r0,r0-r11
800007d6:	78 80       	ld.w	r0,r12[0x20]
800007d8:	9b 60       	st.w	sp[0x18],r0
800007da:	78 c0       	ld.w	r0,r12[0x30]
800007dc:	9b 90       	st.w	sp[0x24],r0
800007de:	9b ab       	st.w	sp[0x28],r11
800007e0:	9b ba       	st.w	sp[0x2c],r10
800007e2:	9b c9       	st.w	sp[0x30],r9
800007e4:	9b d8       	st.w	sp[0x34],r8
800007e6:	79 10       	ld.w	r0,r12[0x44]
800007e8:	9b 50       	st.w	sp[0x14],r0
800007ea:	78 60       	ld.w	r0,r12[0x18]
800007ec:	d4 01       	pushm	lr
800007ee:	f0 1f 00 08 	mcall	8000080c <contextRestoreFromISR+0x54>
800007f2:	d4 02       	popm	lr
800007f4:	1c 9f       	mov	pc,lr
800007f6:	00 00       	add	r0,r0
800007f8:	80 00       	ld.sh	r0,r0[0x0]
800007fa:	02 0c       	add	r12,r1
800007fc:	80 00       	ld.sh	r0,r0[0x0]
800007fe:	07 66       	ld.uh	r6,--r3
80000800:	80 00       	ld.sh	r0,r0[0x0]
80000802:	07 6a       	ld.uh	r10,--r3
80000804:	80 00       	ld.sh	r0,r0[0x0]
80000806:	06 00       	add	r0,r3
80000808:	00 00       	add	r0,r0
8000080a:	00 10       	sub	r0,r0
8000080c:	80 00       	ld.sh	r0,r0[0x0]
8000080e:	03 52       	ld.sh	r2,--r1
	...
